target datalayout = "e-m:e-p270:32:32-p271:32:32-p272:64:64-i64:64-i128:128-f80:128-n8:16:32:64-S128"
target triple = "x86_64-pc-linux-gnu"

%struct.mi_heap_s = type { ptr, ptr, i64, i32, i64, [2 x i64], %struct.mi_random_cxt_s, i64, i64, i64, ptr, i8, i8, [129 x ptr], [75 x %struct.mi_page_queue_s] }
%struct.mi_random_cxt_s = type { [16 x i32], [16 x i32], i32, i8 }
%struct.mi_page_queue_s = type { ptr, ptr, i64 }

; Function Attrs: nounwind uwtable
define internal ptr @mi_segment_large_page_alloc(ptr noundef %0, i64 noundef %1, ptr noundef %2) #0 {
  %4 = alloca ptr, align 8
  %5 = alloca ptr, align 8
  %6 = alloca i64, align 8
  %7 = alloca ptr, align 8
  %8 = alloca ptr, align 8
  %9 = alloca i32, align 4
  %10 = alloca ptr, align 8
  store ptr %0, ptr %5, align 8, !tbaa !62
  store i64 %1, ptr %6, align 8, !tbaa !14
  store ptr %2, ptr %7, align 8, !tbaa !28
  call void @llvm.lifetime.start.p0(i64 8, ptr %8) #7
  %11 = load ptr, ptr %5, align 8, !tbaa !62
  %12 = load i64, ptr %6, align 8, !tbaa !14
  %13 = load ptr, ptr %7, align 8, !tbaa !28
  %14 = call ptr @mi_segment_reclaim_or_alloc(ptr noundef %11, i64 noundef %12, i32 noundef 2, i64 noundef 22, ptr noundef %13) #8
  store ptr %14, ptr %8, align 8, !tbaa !3
  %15 = load ptr, ptr %8, align 8, !tbaa !3
  %16 = icmp eq ptr %15, null
  br i1 %16, label %17, label %18

17:                                               ; preds = %3
  store ptr null, ptr %4, align 8
  store i32 1, ptr %9, align 4
  br label %23

18:                                               ; preds = %3
  call void @llvm.lifetime.start.p0(i64 8, ptr %10) #7
  %19 = load ptr, ptr %8, align 8, !tbaa !3
  %20 = load ptr, ptr %7, align 8, !tbaa !28
  %21 = call ptr @mi_segment_find_free(ptr noundef %19, ptr noundef %20) #8
  store ptr %21, ptr %10, align 8, !tbaa !8
  %22 = load ptr, ptr %10, align 8, !tbaa !8
  store ptr %22, ptr %4, align 8
  store i32 1, ptr %9, align 4
  call void @llvm.lifetime.end.p0(i64 8, ptr %10) #7
  br label %23

23:                                               ; preds = %18, %17
  call void @llvm.lifetime.end.p0(i64 8, ptr %8) #7
  %24 = load ptr, ptr %4, align 8
  ret ptr %24
}

; Function Attrs: nounwind uwtable
define internal ptr @mi_segment_medium_page_alloc(ptr noundef %0, i64 noundef %1, ptr noundef %2) #0 {
  %4 = alloca ptr, align 8
  %5 = alloca i64, align 8
  %6 = alloca ptr, align 8
  store ptr %0, ptr %4, align 8, !tbaa !62
  store i64 %1, ptr %5, align 8, !tbaa !14
  store ptr %2, ptr %6, align 8, !tbaa !28
  %7 = load ptr, ptr %4, align 8, !tbaa !62
  %8 = load i64, ptr %5, align 8, !tbaa !14
  %9 = load ptr, ptr %6, align 8, !tbaa !28
  %10 = call ptr @mi_segment_page_alloc(ptr noundef %7, i64 noundef %8, i32 noundef 1, i64 noundef 19, ptr noundef %9) #8
  ret ptr %10
}

; Function Attrs: nounwind uwtable
define internal ptr @mi_segment_small_page_alloc(ptr noundef %0, i64 noundef %1, ptr noundef %2) #0 {
  %4 = alloca ptr, align 8
  %5 = alloca i64, align 8
  %6 = alloca ptr, align 8
  store ptr %0, ptr %4, align 8, !tbaa !62
  store i64 %1, ptr %5, align 8, !tbaa !14
  store ptr %2, ptr %6, align 8, !tbaa !28
  %7 = load ptr, ptr %4, align 8, !tbaa !62
  %8 = load i64, ptr %5, align 8, !tbaa !14
  %9 = load ptr, ptr %6, align 8, !tbaa !28
  %10 = call ptr @mi_segment_page_alloc(ptr noundef %7, i64 noundef %8, i32 noundef 0, i64 noundef 16, ptr noundef %9) #8
  ret ptr %10
}

; Function Attrs: nounwind uwtable
define hidden ptr @_mi_segment_page_alloc(ptr noundef %0, i64 noundef %1, i64 noundef %2, ptr noundef %3) #0 {
  %5 = alloca ptr, align 8
  %6 = alloca i64, align 8
  %7 = alloca i64, align 8
  %8 = alloca ptr, align 8
  %9 = alloca ptr, align 8
  store ptr %0, ptr %5, align 8, !tbaa !62
  store i64 %1, ptr %6, align 8, !tbaa !14
  store i64 %2, ptr %7, align 8, !tbaa !14
  store ptr %3, ptr %8, align 8, !tbaa !28
  call void @llvm.lifetime.start.p0(i64 8, ptr %9) #7
  %10 = load i64, ptr %7, align 8, !tbaa !14
  %11 = icmp ugt i64 %10, 2097152
  %12 = xor i1 %11, true
  %13 = xor i1 %12, true
  %14 = zext i1 %13 to i32
  %15 = sext i32 %14 to i64
  %16 = call i64 @llvm.expect.i64(i64 %15, i64 0)
  %17 = icmp ne i64 %16, 0
  br i1 %17, label %18, label %30

18:                                               ; preds = %4
  %19 = load i64, ptr %7, align 8, !tbaa !14
  %20 = icmp ult i64 %19, 4194304
  br i1 %20, label %21, label %22

21:                                               ; preds = %18
  store i64 4194304, ptr %7, align 8, !tbaa !14
  br label %22

22:                                               ; preds = %21, %18
  %23 = load i64, ptr %6, align 8, !tbaa !14
  %24 = load i64, ptr %7, align 8, !tbaa !14
  %25 = load ptr, ptr %5, align 8, !tbaa !62
  %26 = getelementptr inbounds nuw %struct.mi_heap_s, ptr %25, i32 0, i32 3
  %27 = load i32, ptr %26, align 8, !tbaa !89
  %28 = load ptr, ptr %8, align 8, !tbaa !28
  %29 = call ptr @mi_segment_huge_page_alloc(i64 noundef %23, i64 noundef %24, i32 noundef %27, ptr noundef %28) #8
  store ptr %29, ptr %9, align 8, !tbaa !8
  br label %65

30:                                               ; preds = %4
  %31 = load i64, ptr %6, align 8, !tbaa !14
  %32 = icmp ule i64 %31, 8192
  br i1 %32, label %33, label %38

33:                                               ; preds = %30
  %34 = load ptr, ptr %5, align 8, !tbaa !62
  %35 = load i64, ptr %6, align 8, !tbaa !14
  %36 = load ptr, ptr %8, align 8, !tbaa !28
  %37 = call ptr @mi_segment_small_page_alloc(ptr noundef %34, i64 noundef %35, ptr noundef %36) #8
  store ptr %37, ptr %9, align 8, !tbaa !8
  br label %64

38:                                               ; preds = %30
  %39 = load i64, ptr %6, align 8, !tbaa !14
  %40 = icmp ule i64 %39, 65536
  br i1 %40, label %41, label %46

41:                                               ; preds = %38
  %42 = load ptr, ptr %5, align 8, !tbaa !62
  %43 = load i64, ptr %6, align 8, !tbaa !14
  %44 = load ptr, ptr %8, align 8, !tbaa !28
  %45 = call ptr @mi_segment_medium_page_alloc(ptr noundef %42, i64 noundef %43, ptr noundef %44) #8
  store ptr %45, ptr %9, align 8, !tbaa !8
  br label %63

46:                                               ; preds = %38
  %47 = load i64, ptr %6, align 8, !tbaa !14
  %48 = icmp ule i64 %47, 1048576
  br i1 %48, label %49, label %54

49:                                               ; preds = %46
  %50 = load ptr, ptr %5, align 8, !tbaa !62
  %51 = load i64, ptr %6, align 8, !tbaa !14
  %52 = load ptr, ptr %8, align 8, !tbaa !28
  %53 = call ptr @mi_segment_large_page_alloc(ptr noundef %50, i64 noundef %51, ptr noundef %52) #8
  store ptr %53, ptr %9, align 8, !tbaa !8
  br label %62

54:                                               ; preds = %46
  %55 = load i64, ptr %6, align 8, !tbaa !14
  %56 = load i64, ptr %7, align 8, !tbaa !14
  %57 = load ptr, ptr %5, align 8, !tbaa !62
  %58 = getelementptr inbounds nuw %struct.mi_heap_s, ptr %57, i32 0, i32 3
  %59 = load i32, ptr %58, align 8, !tbaa !89
  %60 = load ptr, ptr %8, align 8, !tbaa !28
  %61 = call ptr @mi_segment_huge_page_alloc(i64 noundef %55, i64 noundef %56, i32 noundef %59, ptr noundef %60) #8
  store ptr %61, ptr %9, align 8, !tbaa !8
  br label %62

62:                                               ; preds = %54, %49
  br label %63

63:                                               ; preds = %62, %41
  br label %64

64:                                               ; preds = %63, %33
  br label %65

65:                                               ; preds = %64, %22
  %66 = load ptr, ptr %9, align 8, !tbaa !8
  call void @llvm.lifetime.end.p0(i64 8, ptr %9) #7
  ret ptr %66
}