; Function Attrs: nounwind uwtable
define hidden ptr @_mi_segment_page_alloc(ptr noundef %0, i64 noundef %1, i64 noundef %2, ptr noundef captures(address_is_null) %3) local_unnamed_addr #2 {
  %5 = icmp ugt i64 %2, 2097152
  br i1 %5, label %6, label %10, !prof !92

6:                                                ; preds = %4
  %spec.store.select = tail call i64 @llvm.umax.i64(i64 %2, i64 4194304)
  %7 = getelementptr inbounds nuw i8, ptr %0, i64 24
  %8 = load i32, ptr %7, align 8, !tbaa !93
  %9 = tail call fastcc ptr @mi_segment_huge_page_alloc(i64 noundef %1, i64 noundef %spec.store.select, i32 noundef %8, ptr noundef %3) #7
  br label %mi_segment_large_page_alloc.exit

10:                                               ; preds = %4
  %11 = icmp ult i64 %1, 8193
  br i1 %11, label %12, label %14

12:                                               ; preds = %10
  %13 = tail call fastcc ptr @mi_segment_page_alloc(ptr noundef %0, i64 noundef range(i64 0, 8193) %1, i32 noundef 0, i64 noundef 16, ptr noundef %3) #7
  br label %mi_segment_large_page_alloc.exit

14:                                               ; preds = %10
  %15 = icmp ult i64 %1, 65537
  br i1 %15, label %16, label %18

16:                                               ; preds = %14
  %17 = tail call fastcc ptr @mi_segment_page_alloc(ptr noundef %0, i64 noundef range(i64 8193, 65537) %1, i32 noundef 1, i64 noundef 19, ptr noundef %3) #7
  br label %mi_segment_large_page_alloc.exit

18:                                               ; preds = %14
  %19 = icmp ult i64 %1, 1048577
  br i1 %19, label %20, label %25

20:                                               ; preds = %18
  %21 = tail call fastcc ptr @mi_segment_reclaim_or_alloc(ptr noundef %0, i64 noundef range(i64 65537, 1048577) %1, i32 noundef 2, i64 noundef 22, ptr noundef %3) #7
  %22 = icmp eq ptr %21, null
  br i1 %22, label %mi_segment_large_page_alloc.exit, label %23

23:                                               ; preds = %20
  %24 = tail call fastcc ptr @mi_segment_find_free(ptr noundef %21, ptr noundef %3) #7
  br label %mi_segment_large_page_alloc.exit

25:                                               ; preds = %18
  %26 = getelementptr inbounds nuw i8, ptr %0, i64 24
  %27 = load i32, ptr %26, align 8, !tbaa !93
  %28 = tail call fastcc ptr @mi_segment_huge_page_alloc(i64 noundef %1, i64 noundef %2, i32 noundef %27, ptr noundef %3) #7
  br label %mi_segment_large_page_alloc.exit

mi_segment_large_page_alloc.exit:                 ; preds = %23, %20, %12, %25, %16, %6
  %.0 = phi ptr [ %9, %6 ], [ %13, %12 ], [ %17, %16 ], [ %28, %25 ], [ %24, %23 ], [ null, %20 ]
  ret ptr %.0
}